; Function Attrs: nounwind
define internal fastcc void @print_lifetime_from_index(ptr noundef nonnull readonly captures(none) %0, i64 noundef %1) unnamed_addr #0 {
  %3 = alloca [21 x i8], align 16
  %4 = alloca i8, align 1
  %5 = getelementptr inbounds nuw i8, ptr %0, i64 40
  %6 = load i8, ptr %5, align 8, !tbaa !15, !range !24, !noundef !25
  %7 = trunc nuw i8 %6 to i1
  br i1 %7, label %print_str.exit, label %8

8:                                                ; preds = %2
  %9 = getelementptr inbounds nuw i8, ptr %0, i64 41
  %10 = load i8, ptr %9, align 1, !tbaa !16, !range !24, !noundef !25
  %11 = trunc nuw i8 %10 to i1
  br i1 %11, label %print_str.exit, label %12

12:                                               ; preds = %8
  %13 = getelementptr inbounds nuw i8, ptr %0, i64 24
  %14 = load ptr, ptr %13, align 8, !tbaa !13
  %15 = getelementptr inbounds nuw i8, ptr %0, i64 16
  %16 = load ptr, ptr %15, align 8, !tbaa !12
  tail call void %14(ptr noundef nonnull @.str.72, i64 noundef 1, ptr noundef %16) #11
  br label %print_str.exit

print_str.exit:                                   ; preds = %2, %8, %12
  %17 = icmp eq i64 %1, 0
  br i1 %17, label %18, label %30

18:                                               ; preds = %print_str.exit
  %19 = load i8, ptr %5, align 8, !tbaa !15, !range !24, !noundef !25
  %20 = trunc nuw i8 %19 to i1
  br i1 %20, label %print_str.exit11, label %21

21:                                               ; preds = %18
  %22 = getelementptr inbounds nuw i8, ptr %0, i64 41
  %23 = load i8, ptr %22, align 1, !tbaa !16, !range !24, !noundef !25
  %24 = trunc nuw i8 %23 to i1
  br i1 %24, label %print_str.exit11, label %25

25:                                               ; preds = %21
  %26 = getelementptr inbounds nuw i8, ptr %0, i64 24
  %27 = load ptr, ptr %26, align 8, !tbaa !13
  %28 = getelementptr inbounds nuw i8, ptr %0, i64 16
  %29 = load ptr, ptr %28, align 8, !tbaa !12
  tail call void %27(ptr noundef nonnull @.str.70, i64 noundef 1, ptr noundef %29) #11
  br label %print_str.exit11

30:                                               ; preds = %print_str.exit
  %31 = getelementptr inbounds nuw i8, ptr %0, i64 48
  %32 = load i64, ptr %31, align 8, !tbaa !18
  %33 = sub i64 %32, %1
  %34 = icmp ult i64 %33, 26
  br i1 %34, label %35, label %49

35:                                               ; preds = %30
  call void @llvm.lifetime.start.p0(i64 1, ptr nonnull %4) #11
  %36 = trunc nuw i64 %33 to i8
  %37 = add nuw nsw i8 %36, 97
  store i8 %37, ptr %4, align 1, !tbaa !21
  %38 = load i8, ptr %5, align 8, !tbaa !15, !range !24, !noundef !25
  %39 = trunc nuw i8 %38 to i1
  br i1 %39, label %print_str.exit12, label %40

40:                                               ; preds = %35
  %41 = getelementptr inbounds nuw i8, ptr %0, i64 41
  %42 = load i8, ptr %41, align 1, !tbaa !16, !range !24, !noundef !25
  %43 = trunc nuw i8 %42 to i1
  br i1 %43, label %print_str.exit12, label %44

44:                                               ; preds = %40
  %45 = getelementptr inbounds nuw i8, ptr %0, i64 24
  %46 = load ptr, ptr %45, align 8, !tbaa !13
  %47 = getelementptr inbounds nuw i8, ptr %0, i64 16
  %48 = load ptr, ptr %47, align 8, !tbaa !12
  call void %46(ptr noundef nonnull %4, i64 noundef 1, ptr noundef %48) #11
  br label %print_str.exit12

print_str.exit12:                                 ; preds = %35, %40, %44
  call void @llvm.lifetime.end.p0(i64 1, ptr nonnull %4) #11
  br label %print_str.exit11

49:                                               ; preds = %30
  %50 = load i8, ptr %5, align 8, !tbaa !15, !range !24, !noundef !25
  %51 = trunc nuw i8 %50 to i1
  br i1 %51, label %print_str.exit13, label %52

52:                                               ; preds = %49
  %53 = getelementptr inbounds nuw i8, ptr %0, i64 41
  %54 = load i8, ptr %53, align 1, !tbaa !16, !range !24, !noundef !25
  %55 = trunc nuw i8 %54 to i1
  br i1 %55, label %print_str.exit13, label %56

56:                                               ; preds = %52
  %57 = getelementptr inbounds nuw i8, ptr %0, i64 24
  %58 = load ptr, ptr %57, align 8, !tbaa !13
  %59 = getelementptr inbounds nuw i8, ptr %0, i64 16
  %60 = load ptr, ptr %59, align 8, !tbaa !12
  tail call void %58(ptr noundef nonnull @.str.70, i64 noundef 1, ptr noundef %60) #11
  br label %print_str.exit13

print_str.exit13:                                 ; preds = %49, %52, %56
  call void @llvm.lifetime.start.p0(i64 21, ptr nonnull %3) #11
  %61 = call i32 (ptr, ptr, ...) @sprintf(ptr noundef nonnull dereferenceable(1) %3, ptr noundef nonnull dereferenceable(1) @.str.38, i64 noundef %33) #11
  %62 = call i64 @strlen(ptr noundef nonnull dereferenceable(1) %3) #12
  %63 = load i8, ptr %5, align 8, !tbaa !15, !range !24, !noundef !25
  %64 = trunc nuw i8 %63 to i1
  br i1 %64, label %print_uint64.exit, label %65

65:                                               ; preds = %print_str.exit13
  %66 = getelementptr inbounds nuw i8, ptr %0, i64 41
  %67 = load i8, ptr %66, align 1, !tbaa !16, !range !24, !noundef !25
  %68 = trunc nuw i8 %67 to i1
  br i1 %68, label %print_uint64.exit, label %69

69:                                               ; preds = %65
  %70 = getelementptr inbounds nuw i8, ptr %0, i64 24
  %71 = load ptr, ptr %70, align 8, !tbaa !13
  %72 = getelementptr inbounds nuw i8, ptr %0, i64 16
  %73 = load ptr, ptr %72, align 8, !tbaa !12
  call void %71(ptr noundef nonnull %3, i64 noundef %62, ptr noundef %73) #11
  br label %print_uint64.exit

print_uint64.exit:                                ; preds = %print_str.exit13, %65, %69
  call void @llvm.lifetime.end.p0(i64 21, ptr nonnull %3) #11
  br label %print_str.exit11

print_str.exit11:                                 ; preds = %25, %21, %18, %print_str.exit12, %print_uint64.exit
  ret void
}